; Function Attrs: nounwind ssp uwtable
define internal noundef i32 @stream_ref(ptr noundef %0, i64 noundef %1, ptr noundef readonly captures(none) %2, ptr noundef readonly captures(none) %3) #0 {
  %5 = alloca %struct.chacha_ctx, align 4
  call void @llvm.lifetime.start.p0(i64 64, ptr nonnull %5) #6
  %.not = icmp eq i64 %1, 0
  br i1 %.not, label %40, label %6

6:                                                ; preds = %4
  store i32 1634760805, ptr %5, align 4
  %7 = getelementptr inbounds nuw i8, ptr %5, i64 4
  store i32 857760878, ptr %7, align 4
  %8 = getelementptr inbounds nuw i8, ptr %5, i64 8
  store i32 2036477234, ptr %8, align 4
  %9 = getelementptr inbounds nuw i8, ptr %5, i64 12
  store i32 1797285236, ptr %9, align 4
  %10 = load i32, ptr %3, align 1
  %11 = getelementptr inbounds nuw i8, ptr %5, i64 16
  store i32 %10, ptr %11, align 4
  %12 = getelementptr i8, ptr %3, i64 4
  %13 = load i32, ptr %12, align 1
  %14 = getelementptr inbounds nuw i8, ptr %5, i64 20
  store i32 %13, ptr %14, align 4
  %15 = getelementptr i8, ptr %3, i64 8
  %16 = load i32, ptr %15, align 1
  %17 = getelementptr inbounds nuw i8, ptr %5, i64 24
  store i32 %16, ptr %17, align 4
  %18 = getelementptr i8, ptr %3, i64 12
  %19 = load i32, ptr %18, align 1
  %20 = getelementptr inbounds nuw i8, ptr %5, i64 28
  store i32 %19, ptr %20, align 4
  %21 = getelementptr i8, ptr %3, i64 16
  %22 = load i32, ptr %21, align 1
  %23 = getelementptr inbounds nuw i8, ptr %5, i64 32
  store i32 %22, ptr %23, align 4
  %24 = getelementptr i8, ptr %3, i64 20
  %25 = load i32, ptr %24, align 1
  %26 = getelementptr inbounds nuw i8, ptr %5, i64 36
  store i32 %25, ptr %26, align 4
  %27 = getelementptr i8, ptr %3, i64 24
  %28 = load i32, ptr %27, align 1
  %29 = getelementptr inbounds nuw i8, ptr %5, i64 40
  store i32 %28, ptr %29, align 4
  %30 = getelementptr i8, ptr %3, i64 28
  %31 = load i32, ptr %30, align 1
  %32 = getelementptr inbounds nuw i8, ptr %5, i64 44
  store i32 %31, ptr %32, align 4
  %33 = getelementptr inbounds nuw i8, ptr %5, i64 48
  store i32 0, ptr %33, align 4
  %34 = getelementptr inbounds nuw i8, ptr %5, i64 52
  store i32 0, ptr %34, align 4
  %35 = load i32, ptr %2, align 1
  %36 = getelementptr inbounds nuw i8, ptr %5, i64 56
  store i32 %35, ptr %36, align 4
  %37 = getelementptr i8, ptr %2, i64 4
  %38 = load i32, ptr %37, align 1
  %39 = getelementptr inbounds nuw i8, ptr %5, i64 60
  store i32 %38, ptr %39, align 4
  tail call void @llvm.memset.p0.i64(ptr noundef nonnull align 1 %0, i8 noundef 0, i64 noundef range(i64 1, 0) %1, i1 noundef false) #6
  call fastcc void @chacha20_encrypt_bytes(ptr noundef %5, ptr noundef nonnull %0, ptr noundef nonnull %0, i64 noundef %1)
  call void @sodium_memzero(ptr noundef nonnull %5, i64 noundef 64) #6
  br label %40

40:                                               ; preds = %4, %6
  call void @llvm.lifetime.end.p0(i64 64, ptr nonnull %5) #6
  ret i32 0
}